Certificate:
    Data:
        Version: 3 (0x2)
        Serial Number:
            d2:01:43:6c:28:d5:62:d4:c1:07:ed:f1:4f:45:29:04
        Signature Algorithm: sha256WithRSAEncryption
        Issuer: CN=Easy-RSA CA
        Validity
            Not Before: Nov 24 04:47:22 2019 GMT
            Not After : Nov  8 04:47:22 2022 GMT
        Subject: CN=alex_ec2_ohio_1
        Subject Public Key Info:
            Public Key Algorithm: rsaEncryption
                RSA Public-Key: (2048 bit)
                Modulus:
                    00:bf:c3:7b:70:c5:0f:28:71:4d:44:99:aa:53:5c:
                    f6:e1:6b:62:a4:ca:4d:23:68:7f:36:0f:91:9f:fe:
                    ec:92:6b:cf:d9:82:5e:51:52:d0:88:58:1a:98:4f:
                    2e:9c:c8:b3:43:2a:26:2c:20:38:93:96:0f:94:2a:
                    c0:cf:f9:67:86:c3:1b:97:b7:ad:8e:0e:2c:62:05:
                    49:60:28:f3:df:07:df:2a:27:03:d2:37:b0:ad:51:
                    f7:ae:0d:ff:d8:64:4a:9f:f0:38:02:03:44:44:af:
                    9c:47:e4:22:e2:7d:6d:da:7b:d4:f8:7b:32:4b:67:
                    8f:d7:66:44:81:b8:26:dd:fb:4a:ab:7e:24:16:bf:
                    dc:5e:df:bd:5c:1b:40:8c:c7:0c:c0:8e:af:6c:c5:
                    f6:ab:b2:fd:56:91:58:ca:e8:2b:fd:a4:1f:bd:54:
                    1a:21:7f:c7:42:f6:a1:1a:6c:ca:1c:3c:5c:2d:f0:
                    8a:5f:9b:b3:32:12:f9:d0:c1:3e:c8:83:a5:7b:8b:
                    6b:98:44:44:15:63:27:45:46:d7:31:f5:de:bc:6c:
                    6e:73:02:6e:5a:10:0e:15:55:2c:fc:b8:84:2f:dc:
                    9e:11:f7:ca:1e:54:cf:dc:9f:6a:86:bf:15:e0:02:
                    64:50:6f:c3:7b:ac:51:e7:76:15:48:d8:51:dd:75:
                    c4:09
                Exponent: 65537 (0x10001)
        X509v3 extensions:
            X509v3 Basic Constraints: 
                CA:FALSE
            X509v3 Subject Key Identifier: 
                7E:0F:95:73:6E:53:0F:C4:68:A6:42:7A:03:D2:FC:B5:A7:57:B2:D2
            X509v3 Authority Key Identifier: 
                keyid:74:5B:4D:FB:95:CB:91:FB:48:1C:62:02:7F:08:7E:82:B5:77:E3:4E
                DirName:/CN=Easy-RSA CA
                serial:38:E1:36:1C:48:20:A8:C8:4F:E9:0A:30:37:5E:8D:4D:A7:98:B8:86

            X509v3 Extended Key Usage: 
                TLS Web Client Authentication
            X509v3 Key Usage: 
                Digital Signature
    Signature Algorithm: sha256WithRSAEncryption
         53:c2:98:fa:db:9b:bf:07:87:16:11:35:e0:62:53:60:7b:57:
         01:64:a9:72:77:85:0d:c3:2a:94:78:55:60:3c:f2:02:5d:a6:
         18:58:35:ee:73:65:a0:0a:fc:d3:ca:82:76:de:9b:c2:67:a9:
         a1:54:96:40:15:b7:a0:df:17:a7:f7:7a:ba:50:5d:19:76:51:
         f2:ef:1f:98:b3:9c:70:78:6f:6a:a0:97:ec:2e:2d:ff:56:45:
         e7:6a:69:2c:7c:ea:95:95:98:eb:a5:16:c1:39:dd:b9:70:e2:
         25:59:8a:44:4b:6b:a7:71:57:dc:79:61:79:2f:00:57:56:3d:
         16:78:63:cc:09:d2:cf:a2:d7:ea:d0:f8:76:63:7a:5e:1f:f5:
         bd:3c:26:ac:40:8e:df:bf:8a:f6:7a:6c:9e:ca:f9:15:c9:df:
         54:91:ba:c3:cc:62:3f:bd:f4:7b:db:cb:4b:95:27:1a:bf:96:
         27:94:08:7d:ef:58:aa:50:94:df:1e:2c:ad:e8:5b:51:b3:82:
         91:26:dd:76:23:ce:b1:db:fc:b6:d0:97:43:c6:e5:3f:05:4a:
         13:cc:4a:4b:8f:88:68:6c:06:fe:82:05:a4:ee:be:f1:45:02:
         35:91:d3:88:63:d5:6f:a3:a2:81:c4:c8:1f:eb:58:5c:6e:ce:
         37:e5:cb:7f
-----BEGIN CERTIFICATE-----
MIIDXjCCAkagAwIBAgIRANIBQ2wo1WLUwQft8U9FKQQwDQYJKoZIhvcNAQELBQAw
FjEUMBIGA1UEAwwLRWFzeS1SU0EgQ0EwHhcNMTkxMTI0MDQ0NzIyWhcNMjIxMTA4
MDQ0NzIyWjAaMRgwFgYDVQQDDA9hbGV4X2VjMl9vaGlvXzEwggEiMA0GCSqGSIb3
DQEBAQUAA4IBDwAwggEKAoIBAQC/w3twxQ8ocU1EmapTXPbha2Kkyk0jaH82D5Gf
/uySa8/Zgl5RUtCIWBqYTy6cyLNDKiYsIDiTlg+UKsDP+WeGwxuXt62ODixiBUlg
KPPfB98qJwPSN7CtUfeuDf/YZEqf8DgCA0REr5xH5CLifW3ae9T4ezJLZ4/XZkSB
uCbd+0qrfiQWv9xe371cG0CMxwzAjq9sxfarsv1WkVjK6Cv9pB+9VBohf8dC9qEa
bMocPFwt8Ipfm7MyEvnQwT7Ig6V7i2uYREQVYydFRtcx9d68bG5zAm5aEA4VVSz8
uIQv3J4R98oeVM/cn2qGvxXgAmRQb8N7rFHndhVI2FHddcQJAgMBAAGjgaIwgZ8w
CQYDVR0TBAIwADAdBgNVHQ4EFgQUfg+Vc25TD8RopkJ6A9L8tadXstIwUQYDVR0j
BEowSIAUdFtN+5XLkftIHGICfwh+grV3406hGqQYMBYxFDASBgNVBAMMC0Vhc3kt
UlNBIENBghQ44TYcSCCoyE/pCjA3Xo1Np5i4hjATBgNVHSUEDDAKBggrBgEFBQcD
AjALBgNVHQ8EBAMCB4AwDQYJKoZIhvcNAQELBQADggEBAFPCmPrbm78HhxYRNeBi
U2B7VwFkqXJ3hQ3DKpR4VWA88gJdphhYNe5zZaAK/NPKgnbem8JnqaFUlkAVt6Df
F6f3erpQXRl2UfLvH5iznHB4b2qgl+wuLf9WRedqaSx86pWVmOulFsE53blw4iVZ
ikRLa6dxV9x5YXkvAFdWPRZ4Y8wJ0s+i1+rQ+HZjel4f9b08JqxAjt+/ivZ6bJ7K
+RXJ31SRusPMYj+99Hvby0uVJxq/lieUCH3vWKpQlN8eLK3oW1GzgpEm3XYjzrHb
/LbQl0PG5T8FShPMSkuPiGhsBv6CBaTuvvFFAjWR04hj1W+jooHEyB/rWFxuzjfl
y38=
-----END CERTIFICATE-----
